target datalayout = "e-m:e-p270:32:32-p271:32:32-p272:64:64-i64:64-i128:128-f80:128-n8:16:32:64-S128"
target triple = "x86_64-unknown-linux-gnu"

%struct.QemuMutex = type { %union.pthread_mutex_t, i8 }
%union.pthread_mutex_t = type { %struct.__pthread_mutex_s }
%struct.__pthread_mutex_s = type { i32, i32, i32, i32, i32, i16, i16, %struct.__pthread_internal_list }
%struct.__pthread_internal_list = type { ptr, ptr }
%union.anon.2 = type { %struct.QTailQLink }
%struct.QTailQLink = type { ptr, ptr }
%struct.QemuLockable = type { ptr, ptr, ptr }
%struct.AioContext = type { %struct._GSource, %struct.QemuRecMutex, ptr, %struct.AioHandlerList, %struct.AioHandlerList, i32, %struct.QemuLockCnt, %struct.BHList, %struct.anon.0, i8, %struct.EventNotifier, %struct.anon.1, ptr, i32, i32, ptr, ptr, %struct.io_uring, %struct.AioHandlerSList, %struct.QEMUTimerListGroup, i32, i64, i64, i64, i64, i64, %struct.AioHandlerList, i8, i32, ptr }
%struct._GSource = type { ptr, ptr, ptr, i32, ptr, i32, i32, i32, ptr, ptr, ptr, ptr, ptr }
%struct.QemuRecMutex = type { %struct.QemuMutex }
%struct.QemuLockCnt = type { i32 }
%struct.BHList = type { ptr }
%struct.anon.0 = type { ptr, ptr }
%struct.EventNotifier = type { i32, i32, i8 }
%struct.anon.1 = type { ptr }
%struct.io_uring = type { %struct.io_uring_sq, %struct.io_uring_cq, i32, i32, i32, [3 x i32] }
%struct.io_uring_sq = type { ptr, ptr, ptr, ptr, ptr, ptr, ptr, ptr, i32, i32, i64, ptr, [4 x i32] }
%struct.io_uring_cq = type { ptr, ptr, ptr, ptr, ptr, ptr, ptr, i64, ptr, [4 x i32] }
%struct.AioHandlerSList = type { ptr }
%struct.QEMUTimerListGroup = type { [4 x ptr] }
%struct.AioHandlerList = type { ptr }
%struct.BdrvGraphRWlock = type { i32, %union.anon }
%union.anon = type { %struct.QTailQLink }

@aio_context_list_lock = internal global %struct.QemuMutex zeroinitializer, align 8
@.str = private unnamed_addr constant [35 x i8] c"ctx->bdrv_graph->reader_count == 0\00", align 1
@.str.1 = private unnamed_addr constant [27 x i8] c"../qemu/block/graph-lock.c\00", align 1
@__PRETTY_FUNCTION__.register_aiocontext = private unnamed_addr constant [39 x i8] c"void register_aiocontext(AioContext *)\00", align 1
@aio_context_list = internal global %union.anon.2 { %struct.QTailQLink { ptr null, ptr @aio_context_list } }, align 8

; Function Attrs: nounwind sspstrong uwtable
define internal void @qemu_lockable_unlock(ptr noundef %x) #0 {
entry:
  %x.addr = alloca ptr, align 8
  store ptr %x, ptr %x.addr, align 8
  %0 = load ptr, ptr %x.addr, align 8
  %unlock = getelementptr inbounds %struct.QemuLockable, ptr %0, i32 0, i32 2
  %1 = load ptr, ptr %unlock, align 8
  %2 = load ptr, ptr %x.addr, align 8
  %object = getelementptr inbounds %struct.QemuLockable, ptr %2, i32 0, i32 0
  %3 = load ptr, ptr %object, align 8
  call void %1(ptr noundef %3)
  ret void
}

; Function Attrs: nounwind sspstrong uwtable
define internal void @qemu_lockable_auto_unlock(ptr noundef %x) #0 {
entry:
  %x.addr = alloca ptr, align 8
  store ptr %x, ptr %x.addr, align 8
  %0 = load ptr, ptr %x.addr, align 8
  %tobool = icmp ne ptr %0, null
  br i1 %tobool, label %if.then, label %if.end

if.then:                                          ; preds = %entry
  %1 = load ptr, ptr %x.addr, align 8
  call void @qemu_lockable_unlock(ptr noundef %1)
  br label %if.end

if.end:                                           ; preds = %if.then, %entry
  ret void
}

; Function Attrs: nounwind sspstrong uwtable
define internal void @glib_autoptr_clear_QemuLockable(ptr noundef %_ptr) #0 {
entry:
  %_ptr.addr = alloca ptr, align 8
  store ptr %_ptr, ptr %_ptr.addr, align 8
  %0 = load ptr, ptr %_ptr.addr, align 8
  %tobool = icmp ne ptr %0, null
  br i1 %tobool, label %if.then, label %if.end

if.then:                                          ; preds = %entry
  %1 = load ptr, ptr %_ptr.addr, align 8
  call void @qemu_lockable_auto_unlock(ptr noundef %1)
  br label %if.end

if.end:                                           ; preds = %if.then, %entry
  ret void
}

; Function Attrs: nounwind sspstrong uwtable
define internal void @qemu_lockable_lock(ptr noundef %x) #0 {
entry:
  %x.addr = alloca ptr, align 8
  store ptr %x, ptr %x.addr, align 8
  %0 = load ptr, ptr %x.addr, align 8
  %lock = getelementptr inbounds %struct.QemuLockable, ptr %0, i32 0, i32 1
  %1 = load ptr, ptr %lock, align 8
  %2 = load ptr, ptr %x.addr, align 8
  %object = getelementptr inbounds %struct.QemuLockable, ptr %2, i32 0, i32 0
  %3 = load ptr, ptr %object, align 8
  call void %1(ptr noundef %3)
  ret void
}

; Function Attrs: nounwind sspstrong uwtable
define internal void @glib_autoptr_cleanup_QemuLockable(ptr noundef %_ptr) #0 {
entry:
  %_ptr.addr = alloca ptr, align 8
  store ptr %_ptr, ptr %_ptr.addr, align 8
  %0 = load ptr, ptr %_ptr.addr, align 8
  %1 = load ptr, ptr %0, align 8
  call void @glib_autoptr_clear_QemuLockable(ptr noundef %1)
  ret void
}

; Function Attrs: nounwind sspstrong uwtable
define internal ptr @qemu_lockable_auto_lock(ptr noundef %x) #0 {
entry:
  %x.addr = alloca ptr, align 8
  store ptr %x, ptr %x.addr, align 8
  %0 = load ptr, ptr %x.addr, align 8
  call void @qemu_lockable_lock(ptr noundef %0)
  %1 = load ptr, ptr %x.addr, align 8
  ret ptr %1
}

; Function Attrs: nounwind sspstrong uwtable
define dso_local void @register_aiocontext(ptr noundef %ctx) #0 {
entry:
  %x.addr.i = alloca ptr, align 8
  %lockable.addr.i = alloca ptr, align 8
  %ctx.addr = alloca ptr, align 8
  %qemu_lockable_auto4 = alloca ptr, align 8
  %.compoundliteral = alloca %struct.QemuLockable, align 8
  store ptr %ctx, ptr %ctx.addr, align 8
  %call = call noalias ptr @g_malloc0_n(i64 noundef 1, i64 noundef 24) #5
  %0 = load ptr, ptr %ctx.addr, align 8
  %bdrv_graph = getelementptr inbounds %struct.AioContext, ptr %0, i32 0, i32 2
  store ptr %call, ptr %bdrv_graph, align 8
  %object = getelementptr inbounds %struct.QemuLockable, ptr %.compoundliteral, i32 0, i32 0
  store ptr @aio_context_list_lock, ptr %object, align 8
  %lock = getelementptr inbounds %struct.QemuLockable, ptr %.compoundliteral, i32 0, i32 1
  store ptr @qemu_mutex_lock, ptr %lock, align 8
  %unlock = getelementptr inbounds %struct.QemuLockable, ptr %.compoundliteral, i32 0, i32 2
  store ptr @qemu_mutex_unlock, ptr %unlock, align 8
  store ptr @aio_context_list_lock, ptr %x.addr.i, align 8
  store ptr %.compoundliteral, ptr %lockable.addr.i, align 8
  %1 = load ptr, ptr %x.addr.i, align 8
  %tobool.i = icmp ne ptr %1, null
  br i1 %tobool.i, label %cond.true.i, label %cond.false.i

cond.true.i:                                      ; preds = %entry
  %2 = load ptr, ptr %lockable.addr.i, align 8
  br label %qemu_make_lockable.exit

cond.false.i:                                     ; preds = %entry
  br label %qemu_make_lockable.exit

qemu_make_lockable.exit:                          ; preds = %cond.false.i, %cond.true.i
  %cond.i = phi ptr [ %2, %cond.true.i ], [ null, %cond.false.i ]
  %call2 = call ptr @qemu_lockable_auto_lock(ptr noundef %cond.i)
  store ptr %call2, ptr %qemu_lockable_auto4, align 8
  %3 = load ptr, ptr %ctx.addr, align 8
  %bdrv_graph3 = getelementptr inbounds %struct.AioContext, ptr %3, i32 0, i32 2
  %4 = load ptr, ptr %bdrv_graph3, align 8
  %reader_count = getelementptr inbounds %struct.BdrvGraphRWlock, ptr %4, i32 0, i32 0
  %5 = load i32, ptr %reader_count, align 8
  %cmp = icmp eq i32 %5, 0
  br i1 %cmp, label %if.then, label %if.else

if.then:                                          ; preds = %qemu_make_lockable.exit
  br label %if.end

if.else:                                          ; preds = %qemu_make_lockable.exit
  call void @__assert_fail(ptr noundef @.str, ptr noundef @.str.1, i32 noundef 79, ptr noundef @__PRETTY_FUNCTION__.register_aiocontext) #6
  unreachable

if.end:                                           ; preds = %if.then
  br label %do.body

do.body:                                          ; preds = %if.end
  %6 = load ptr, ptr %ctx.addr, align 8
  %bdrv_graph4 = getelementptr inbounds %struct.AioContext, ptr %6, i32 0, i32 2
  %7 = load ptr, ptr %bdrv_graph4, align 8
  %next_aio = getelementptr inbounds %struct.BdrvGraphRWlock, ptr %7, i32 0, i32 1
  store ptr null, ptr %next_aio, align 8
  %8 = getelementptr inbounds %struct.QTailQLink, ptr @aio_context_list, i32 0, i32 1
  %9 = load ptr, ptr %8, align 8
  %10 = load ptr, ptr %ctx.addr, align 8
  %bdrv_graph5 = getelementptr inbounds %struct.AioContext, ptr %10, i32 0, i32 2
  %11 = load ptr, ptr %bdrv_graph5, align 8
  %next_aio6 = getelementptr inbounds %struct.BdrvGraphRWlock, ptr %11, i32 0, i32 1
  %tql_prev = getelementptr inbounds %struct.QTailQLink, ptr %next_aio6, i32 0, i32 1
  store ptr %9, ptr %tql_prev, align 8
  %12 = load ptr, ptr %ctx.addr, align 8
  %bdrv_graph7 = getelementptr inbounds %struct.AioContext, ptr %12, i32 0, i32 2
  %13 = load ptr, ptr %bdrv_graph7, align 8
  %14 = getelementptr inbounds %struct.QTailQLink, ptr @aio_context_list, i32 0, i32 1
  %15 = load ptr, ptr %14, align 8
  %tql_next = getelementptr inbounds %struct.QTailQLink, ptr %15, i32 0, i32 0
  store ptr %13, ptr %tql_next, align 8
  %16 = load ptr, ptr %ctx.addr, align 8
  %bdrv_graph8 = getelementptr inbounds %struct.AioContext, ptr %16, i32 0, i32 2
  %17 = load ptr, ptr %bdrv_graph8, align 8
  %next_aio9 = getelementptr inbounds %struct.BdrvGraphRWlock, ptr %17, i32 0, i32 1
  %18 = getelementptr inbounds %struct.QTailQLink, ptr @aio_context_list, i32 0, i32 1
  store ptr %next_aio9, ptr %18, align 8
  br label %do.cond

do.cond:                                          ; preds = %do.body
  br label %do.end

do.end:                                           ; preds = %do.cond
  call void @glib_autoptr_cleanup_QemuLockable(ptr noundef %qemu_lockable_auto4)
  ret void
}