; Function Attrs: nounwind sspstrong uwtable
define dso_local void @register_aiocontext(ptr noundef captures(none) initializes((144, 152)) %ctx) local_unnamed_addr #0 {
entry:
  %call = tail call noalias dereferenceable_or_null(24) ptr @g_malloc0_n(i64 noundef 1, i64 noundef 24) #6
  %bdrv_graph = getelementptr inbounds nuw i8, ptr %ctx, i64 144
  store ptr %call, ptr %bdrv_graph, align 8
  %0 = load atomic i64, ptr @qemu_mutex_lock_func monotonic, align 8
  %1 = inttoptr i64 %0 to ptr
  tail call void %1(ptr noundef nonnull @aio_context_list_lock, ptr noundef nonnull @.str.7, i32 noundef 122) #5
  %2 = load ptr, ptr %bdrv_graph, align 8
  %3 = load i32, ptr %2, align 8
  %cmp = icmp eq i32 %3, 0
  br i1 %cmp, label %glib_autoptr_cleanup_QemuLockable.exit, label %if.else

if.else:                                          ; preds = %entry
  tail call void @__assert_fail(ptr noundef nonnull @.str, ptr noundef nonnull @.str.1, i32 noundef 79, ptr noundef nonnull @__PRETTY_FUNCTION__.register_aiocontext) #7
  unreachable

glib_autoptr_cleanup_QemuLockable.exit:           ; preds = %entry
  %next_aio = getelementptr inbounds nuw i8, ptr %2, i64 8
  store ptr null, ptr %next_aio, align 8
  %4 = load ptr, ptr getelementptr inbounds nuw (i8, ptr @aio_context_list, i64 8), align 8
  %5 = load ptr, ptr %bdrv_graph, align 8
  %tql_prev = getelementptr inbounds nuw i8, ptr %5, i64 16
  store ptr %4, ptr %tql_prev, align 8
  %6 = load ptr, ptr %bdrv_graph, align 8
  store ptr %6, ptr %4, align 8
  %next_aio9 = getelementptr inbounds nuw i8, ptr %6, i64 8
  store ptr %next_aio9, ptr getelementptr inbounds nuw (i8, ptr @aio_context_list, i64 8), align 8
  tail call void @qemu_mutex_unlock_impl(ptr noundef nonnull @aio_context_list_lock, ptr noundef nonnull @.str.7, i32 noundef 132) #5
  ret void
}